(dp0
VMesquite, TX
p1
(F32.7749375
F-96.60214250000001
tp2
sVFort Wayne, IN
p3
(F41.086917
F-85.1700515
tp4
sVArvada, CO
p5
(F39.8202065
F-105.12818850000001
tp6
sVLynn, MA
p7
(F42.478737
F-70.966855
tp8
sVEl Paso, TX
p9
(F31.793368
F-106.4174305
tp10
sVSouth Bend, IN
p11
(F41.679655499999996
F-86.290863
tp12
sVBend, OR
p13
(F44.059938
F-121.311582
tp14
sVOntario, CA
p15
(F34.0451585
F-117.60378299999999
tp16
sVLakeland, FL
p17
(F28.049601000000003
F-81.97270499999999
tp18
sVCicero, IL
p19
(F41.843776
F-87.75880049999999
tp20
sVElgin, IL
p21
(F42.0399395
F-88.3104475
tp22
sVFremont, CA
p23
(F37.5236445
F-121.979527
tp24
sVAmarillo, TX
p25
(F35.2111155
F-101.816092
tp26
sVNorwalk, CA
p27
(F33.9072505
F-118.0767455
tp28
sVWashington, DC
p29
(F38.898602999999994
F-77.0143985
tp30
sVWestland, MI
p31
(F42.3113055
F-83.369718
tp32
sVTempe, AZ
p33
(F33.392883999999995
F-111.928142
tp34
sVNorwalk, CT
p35
(F41.1562815
F-73.4409395
tp36
sVBeaumont, TX
p37
(F30.086918
F-94.12863349999999
tp38
sVHayward, CA
p39
(F37.641270500000005
F-122.0857755
tp40
sVMurrieta, CA
p41
(F33.5669805
F-117.1965255
tp42
sVBroken Arrow, OK
p43
(F36.0393055
F-95.770195
tp44
sVRancho Cucamonga, CA
p45
(F34.12167
F-117.5621525
tp46
sVSandy, UT
p47
(F40.572455500000004
F-111.8609655
tp48
sVOxnard, CA
p49
(F34.181956
F-119.165389
tp50
sVFort Lauderdale, FL
p51
(F26.150368
F-80.1491725
tp52
sVNashua, NH
p53
(F42.752969500000006
F-71.50411700000001
tp54
sVReading, PA
p55
(F40.3341185
F-75.9250215
tp56
sVColumbus, OH
p57
(F39.9946835
F-82.985772
tp58
sVCitrus Heights, CA
p59
(F38.693226
F-121.2870795
tp60
sVGrand Prairie, TX
p61
(F32.768591
F-96.994833
tp62
sVNewport News, VA
p63
(F37.090301
F-76.50780850000001
tp64
sVRacine, WI
p65
(F42.738642999999996
F-87.82412550000001
tp66
sVVancouver, WA
p67
(F45.630589
F-122.5889745
tp68
sVHollywood, FL
p69
(F26.03968
F-80.1783915
tp70
sVSpokane, WA
p71
(F47.667438
F-117.43454699999998
tp72
sVBellingham, WA
p73
(F48.753352500000005
F-122.430277
tp74
sVBakersfield, CA
p75
(F35.3469015
F-119.025163
tp76
sVLowell, MA
p77
(F42.636248
F-71.326858
tp78
sVSanta Clara, CA
p79
(F37.370990000000006
F-121.967821
tp80
sVPalmdale, CA
p81
(F34.583629
F-118.125196
tp82
sVGainesville, FL
p83
(F29.673171500000002
F-82.3302695
tp84
sVReno, NV
p85
(F39.512436
F-119.827182
tp86
sVAthens, GA
p87
(F33.9563835
F-83.3997795
tp88
sVHigh Point, NC
p89
(F35.995054499999995
F-79.99535850000001
tp90
sVLawton, OK
p91
(F34.620960499999995
F-98.4225265
tp92
sVSan Antonio, TX
p93
(F29.417501
F-98.54065150000001
tp94
sVSanta Clarita, CA
p95
(F34.415631
F-118.5032585
tp96
sVWorcester, MA
p97
(F42.275760000000005
F-71.812438
tp98
sVFayetteville, NC
p99
(F35.054626999999996
F-79.0021125
tp100
sVCranston, RI
p101
(F41.768938
F-71.463968
tp102
sVGary, IN
p103
(F41.585848999999996
F-87.32773350000001
tp104
sVChesapeake, VA
p105
(F36.7632155
F-76.2958955
tp106
sVSimi Valley, CA
p107
(F34.2673105
F-118.731399
tp108
sVHawthorne, CA
p109
(F33.914068
F-118.34613800000001
tp110
sVYonkers, NY
p111
(F40.944567500000005
F-73.86085700000001
tp112
sVSyracuse, NY
p113
(F43.052606999999995
F-76.1288105
tp114
sVStockton, CA
p115
(F37.980826
F-121.30042549999999
tp116
sVHuntsville, AL
p117
(F34.7060265
F-86.611411
tp118
sVSurprise, AZ
p119
(F33.6466545
F-112.379447
tp120
sVWarren, MI
p121
(F42.492846
F-83.0269885
tp122
sVPalm Bay, FL
p123
(F27.986947
F-80.65181799999999
tp124
sVWest Jordan, UT
p125
(F40.6030705
F-111.992317
tp126
sVPlantation, FL
p127
(F26.1245075
F-80.26351700000001
tp128
sVMobile, AL
p129
(F30.683649000000003
F-88.16155549999999
tp130
sVDes Moines, IA
p131
(F41.5764375
F-93.6063695
tp132
sVNaperville, IL
p133
(F41.748496
F-88.1613215
tp134
sVMcKinney, TX
p135
(F33.1946515
F-96.69960400000001
tp136
sVDearborn, MI
p137
(F42.314732
F-83.213557
tp138
sVSouth Gate, CA
p139
(F33.938045
F-118.19402550000001
tp140
sVOlathe, KS
p141
(F38.886623
F-94.80808499999999
tp142
sVAnaheim, CA
p143
(F33.842863
F-117.851089
tp144
sVSparks, NV
p145
(F39.574216500000006
F-119.71069449999999
tp146
sVFlint, MI
p147
(F42.9944585
F-83.72561
tp148
sVMemphis, TN
p149
(F35.1335205
F-89.92202900000001
tp150
sVPasadena, CA
p151
(F34.17731
F-118.131964
tp152
sVLancaster, CA
p153
(F34.685827
F-118.1632765
tp154
sVLansing, MI
p155
(F42.71204899999999
F-84.55789899999999
tp156
sVMelbourne, FL
p157
(F28.117874
F-80.649699
tp158
sVSavannah, GA
p159
(F32.0172845
F-81.1096165
tp160
sVInglewood, CA
p161
(F33.953633499999995
F-118.3461525
tp162
sVHenderson, NV
p163
(F36.006256
F-115.03833700000001
tp164
sVJackson, MS
p165
(F32.230987
F-90.1580165
tp166
sVAbilene, TX
p167
(F32.415051000000005
F-99.750556
tp168
sVChico, CA
p169
(F39.747037
F-121.83373
tp170
sVSterling Heights, MI
p171
(F42.581306
F-83.03057299999999
tp172
sVAllen, TX
p173
(F33.112316500000006
F-96.672767
tp174
sVFairfield, CA
p175
(F38.233362
F-122.0429745
tp176
sVJoliet, IL
p177
(F41.519555999999994
F-88.1425115
tp178
sVNorman, OK
p179
(F35.222301
F-97.4451735
tp180
sVDaly City, CA
p181
(F37.678779500000005
F-122.4526985
tp182
sVSan Bernardino, CA
p183
(F34.134924999999996
F-117.294096
tp184
sVVirginia Beach, VA
p185
(F36.8025415
F-76.069946
tp186
sVLivermore, CA
p187
(F37.683592000000004
F-121.760079
tp188
sVBoca Raton, FL
p189
(F26.3739755
F-80.134986
tp190
sVDowney, CA
p191
(F33.9376735
F-118.130426
tp192
sVMacon, GA
p193
(F32.848817499999996
F-83.6540795
tp194
sVNew Haven, CT
p195
(F41.298394
F-72.9291585
tp196
sVRedding, CA
p197
(F40.5539945
F-122.36005300000001
tp198
sVIndianapolis, IN
p199
(F39.7795625
F-86.1429225
tp200
sVTrenton, NJ
p201
(F40.2161325
F-74.7733365
tp202
sVEscondido, CA
p203
(F33.120359
F-117.07231850000001
tp204
sVOverland Park, KS
p205
(F38.931549000000004
F-94.67509349999999
tp206
sVSacramento, CA
p207
(F38.561722
F-121.469664
tp208
sVPasadena, TX
p209
(F29.668301
F-95.158936
tp210
sVCamden, NJ
p211
(F39.9374855
F-75.09971250000001
tp212
sVLincoln, NE
p213
(F40.803235
F-96.6965625
tp214
sVErie, PA
p215
(F42.110703
F-80.08703200000001
tp216
sVVacaville, CA
p217
(F38.362843999999996
F-121.9719265
tp218
sVTroy, MI
p219
(F42.579003
F-83.1480435
tp220
sVLee's Summit, MO
p221
(F38.916093000000004
F-94.3782315
tp222
sVEvansville, IN
p223
(F38.0034665
F-87.57469049999999
tp224
sVKilleen, TX
p225
(F31.0793065
F-97.75384
tp226
sVNewport Beach, CA
p227
(F33.617638
F-117.874032
tp228
sVColumbus, GA
p229
(F32.4823035
F-84.917307
tp230
sVFall River, MA
p231
(F41.6861005
F-71.1486405
tp232
sVHammond, IN
p233
(F41.6381905
F-87.4788145
tp234
sVSan Jose, CA
p235
(F37.331159
F-121.8737305
tp236
sVSan Francisco, CA
p237
(F37.7706565
F-122.4359785
tp238
sVMontgomery, AL
p239
(F32.364145
F-86.2447285
tp240
sVHampton, VA
p241
(F37.0508965
F-76.36227600000001
tp242
sVMcAllen, TX
p243
(F26.24069
F-98.2456745
tp244
sVPhiladelphia, PA
p245
(F40.0048655
F-75.117998
tp246
sVMiami Beach, FL
p247
(F25.816965500000002
F-80.13296249999999
tp248
sVChattanooga, TN
p249
(F35.0919545
F-85.242564
tp250
sVAvondale, AZ
p251
(F33.4392955
F-112.3152115
tp252
sVLouisville, KY
p253
(F38.195555
F-85.7223455
tp254
sVRound Rock, TX
p255
(F30.5193405
F-97.672732
tp256
sVJersey City, NJ
p257
(F40.7180015
F-74.066663
tp258
sVHartford, CT
p259
(F41.765617
F-72.6809665
tp260
sVQuincy, MA
p261
(F42.256124
F-71.02134
tp262
sVCincinnati, OH
p263
(F39.137038000000004
F-84.5398125
tp264
sVTyler, TX
p265
(F32.315661500000004
F-95.31704
tp266
sVPortland, OR
p267
(F45.536402
F-122.63090799999999
tp268
sVPembroke Pines, FL
p269
(F26.0278895
F-80.3279985
tp270
sVFort Worth, TX
p271
(F32.7799665
F-97.2859135
tp272
sVDayton, OH
p273
(F39.78035800000001
F-84.200366
tp274
sVDavie, FL
p275
(F26.0781705
F-80.285189
tp276
sVOmaha, NE
p277
(F41.275721000000004
F-96.053431
tp278
sVCharlotte, NC
p279
(F35.209058999999996
F-80.8467855
tp280
sVGlendale, AZ
p281
(F33.386464
F-111.703345
tp282
sVRaleigh, NC
p283
(F35.845992499999994
F-78.6572445
tp284
sVIrvine, CA
p285
(F33.689732
F-117.7823605
tp286
sVLakewood, CA
p287
(F33.8446495
F-118.11307550000001
tp288
sVSan Angelo, TX
p289
(F31.4405225
F-100.453089
tp290
sVLakewood, CO
p291
(F39.685852
F-105.1233195
tp292
sVBaltimore, MD
p293
(F39.284712999999996
F-76.62048200000001
tp294
sVEl Cajon, CA
p295
(F32.7992535
F-116.9523525
tp296
sVKenosha, WI
p297
(F42.589265499999996
F-87.88340500000001
tp298
sVSt. Louis, MO
p299
(F38.653099
F-90.243462
tp300
sVWinston-Salem, NC
p301
(F36.087168500000004
F-80.244984
tp302
sVMesa, AZ
p303
(F33.4057545
F-111.7375655
tp304
sVStamford, CT
p305
(F41.0983345
F-73.554097
tp306
sVDeltona, FL
p307
(F28.904590499999998
F-81.2200085
tp308
sVTampa, FL
p309
(F27.9965945
F-82.44269399999999
tp310
sVSanta Barbara, CA
p311
(F34.429885
F-119.701636
tp312
sVVista, CA
p313
(F33.184920500000004
F-117.23977950000001
tp314
sVCentennial, CO
p315
(F39.617782500000004
F-104.8378075
tp316
sVModesto, CA
p317
(F37.663817
F-120.987468
tp318
sVDuluth, MN
p319
(F46.758334500000004
F-92.12284000000001
tp320
sVGarden Grove, CA
p321
(F33.769045
F-117.96854
tp322
sVScottsdale, AZ
p323
(F33.639340000000004
F-111.85839849999999
tp324
sVFontana, CA
p325
(F34.1081605
F-117.462698
tp326
sVOakland, CA
p327
(F37.791994
F-122.2286855
tp328
sVLos Angeles, CA
p329
(F34.0207895
F-118.4119065
tp330
sS'NOT_IN_US, NONE'
p331
(F43.724971
F-79.7595915
tp332
sVAustin, TX
p333
(F30.323345500000002
F-97.754724
tp334
sVGrand Rapids, MI
p335
(F42.9564115
F-85.6411415
tp336
sVTacoma, WA
p337
(F47.2429605
F-122.455344
tp338
sVEugene, OR
p339
(F44.065621
F-123.1224015
tp340
sVMiami, FL
p341
(F25.7823535
F-80.2333285
tp342
sVBirmingham, AL
p343
(F33.5422375
F-86.793917
tp344
sVWest Covina, CA
p345
(F34.0471795
F-117.89666199999999
tp346
sVHuntington Beach, CA
p347
(F33.692542
F-117.9987325
tp348
sVMiramar, FL
p349
(F25.976124000000002
F-80.307064
tp350
sVAkron, OH
p351
(F41.0808775
F-81.5167515
tp352
sVWaukegan, IL
p353
(F42.36878
F-87.88322600000001
tp354
sVTuscaloosa, AL
p355
(F33.1966005
F-87.5334065
tp356
sVFort Smith, AR
p357
(F35.3572525
F-94.370308
tp358
sVHillsboro, OR
p359
(F45.530778999999995
F-122.93553
tp360
sVBerkeley, CA
p361
(F37.8758455
F-122.27952149999999
tp362
sVChicago, IL
p363
(F41.8335845
F-87.73201300000001
tp364
sVFresno, CA
p365
(F36.786041999999995
F-119.7824645
tp366
sVParma, OH
p367
(F41.3849235
F-81.7348115
tp368
sVNorth Las Vegas, NV
p369
(F36.24912449999999
F-115.133373
tp370
sVHialeah, FL
p371
(F25.857732
F-80.3046625
tp372
sVSalinas, CA
p373
(F36.6891495
F-121.6412685
tp374
sVGresham, OR
p375
(F45.510140500000006
F-122.4331955
tp376
sVTorrance, CA
p377
(F33.8337145
F-118.3512175
tp378
sVMurfreesboro, TN
p379
(F35.84742
F-86.40961
tp380
sVCarson, CA
p381
(F33.839611500000004
F-118.2480625
tp382
sVPortsmouth, VA
p383
(F36.841764
F-76.35591799999999
tp384
sVTulsa, OK
p385
(F36.1093915
F-95.91364200000001
tp386
sVMilwaukee, WI
p387
(F43.05672249999999
F-87.9672925
tp388
sVRichardson, TX
p389
(F32.9644845
F-96.69093699999999
tp390
sVSpokane Valley, WA
p391
(F47.6625765
F-117.234439
tp392
sVBellevue, WA
p393
(F47.5978565
F-122.149768
tp394
sVLaredo, TX
p395
(F27.532077
F-99.45467599999999
tp396
sVEvanston, IL
p397
(F42.045437
F-87.6991955
tp398
sVSioux Falls, SD
p399
(F43.5410145
F-96.7311425
tp400
sVLas Vegas, NV
p401
(F36.232915
F-115.223125
tp402
sVClifton, NJ
p403
(F40.859832
F-74.1581305
tp404
sVNampa, ID
p405
(F43.578912
F-116.5696085
tp406
sVAlexandria, VA
p407
(F38.81738
F-77.0908695
tp408
sVCary, NC
p409
(F35.7561885
F-78.83702100000001
tp410
sVLafayette, LA
p411
(F30.206079
F-92.0611765
tp412
sVKnoxville, TN
p413
(F35.9824705
F-83.9638415
tp414
sVSeattle, WA
p415
(F47.6130285
F-122.34206449999999
tp416
sVThousand Oaks, CA
p417
(F34.188478
F-118.91888650000001
tp418
sVTallahassee, FL
p419
(F30.476215500000002
F-84.266174
tp420
sVBeaverton, OR
p421
(F45.484892
F-122.80557900000001
tp422
sVIrving, TX
p423
(F32.863917
F-96.961483
tp424
sVElk Grove, CA
p425
(F38.4215345
F-121.3820915
tp426
sVAtlanta, GA
p427
(F33.7671945
F-84.433106
tp428
sVWaco, TX
p429
(F31.547449
F-97.1691565
tp430
sVIndependence, MO
p431
(F39.0880045
F-94.3783325
tp432
sVRoseville, CA
p433
(F38.7631605
F-121.3007305
tp434
sVKansas City, MO
p435
(F39.1000485
F-94.5592815
tp436
sVBrownsville, TX
p437
(F25.9721055
F-97.47742600000001
tp438
sVWilmington, NC
p439
(F34.2075545
F-77.86670649999999
tp440
sVBridgeport, CT
p441
(F41.1856745
F-73.1991185
tp442
sVChampaign, IL
p443
(F40.1074845
F-88.27921900000001
tp444
sVGreen Bay, WI
p445
(F44.5231735
F-88.0081985
tp446
sVNorfolk, VA
p447
(F36.895082
F-76.255686
tp448
sVChino, CA
p449
(F33.9873325
F-117.67325450000001
tp450
sVRoswell, GA
p451
(F34.0412115
F-84.340338
tp452
sVAntioch, CA
p453
(F37.9856605
F-121.79644400000001
tp454
sVMission Viejo, CA
p455
(F33.603508000000005
F-117.656773
tp456
sVDanbury, CT
p457
(F41.4081195
F-73.47297850000001
tp458
sVPomona, CA
p459
(F34.0654505
F-117.77291699999999
tp460
sVCape Coral, FL
p461
(F26.63648
F-81.986834
tp462
sVHouston, TX
p463
(F29.838495
F-95.44648649999999
tp464
sVNorth Charleston, SC
p465
(F32.914424499999996
F-80.04593899999999
tp466
sVSpringfield, IL
p467
(F39.774345999999994
F-89.6596895
tp468
sVAnchorage, AK
p469
(F61.2350425
F-149.7587945
tp470
sVChandler, AZ
p471
(F33.282450499999996
F-111.8808735
tp472
sVSunrise, FL
p473
(F26.1566185
F-80.2948925
tp474
sVPompano Beach, FL
p475
(F26.251895
F-80.1386455
tp476
sVClarksville, TN
p477
(F36.5509835
F-87.3221685
tp478
sVNewark, NJ
p479
(F40.734494
F-74.184848
tp480
sVShreveport, LA
p481
(F32.461107
F-93.809434
tp482
sVYakima, WA
p483
(F46.5942225
F-120.5297595
tp484
sVRialto, CA
p485
(F34.0976985
F-117.386642
tp486
sVVisalia, CA
p487
(F36.319486
F-119.3195265
tp488
sVWhittier, CA
p489
(F33.9759175
F-118.0188555
tp490
sVOklahoma City, OK
p491
(F35.4828435
F-97.552161
tp492
sVSan Leandro, CA
p493
(F37.7050435
F-122.162294
tp494
sVMerced, CA
p495
(F37.316222499999995
F-120.47181
tp496
sVCoral Springs, FL
p497
(F26.270260999999998
F-80.2497725
tp498
sVLongmont, CO
p499
(F40.1659305
F-105.11221649999999
tp500
sVDecatur, IL
p501
(F39.854585
F-88.93668350000002
tp502
sVFort Collins, CO
p503
(F40.564190499999995
F-105.0639425
tp504
sVRichmond, CA
p505
(F37.948843
F-122.362414
tp506
sVHesperia, CA
p507
(F34.418775499999995
F-117.31909399999999
tp508
sVFrisco, TX
p509
(F33.1501395
F-96.83524899999999
tp510
sVCorpus Christi, TX
p511
(F27.737151
F-97.432425
tp512
sVBoston, MA
p513
(F42.3136695
F-71.0887125
tp514
sVGarland, TX
p515
(F32.907642
F-96.621634
tp516
sVBillings, MT
p517
(F45.7974455
F-108.56292199999999
tp518
sVMoreno Valley, CA
p519
(F33.921924000000004
F-117.21791999999999
tp520
sVVentura, CA
p521
(F34.289689499999994
F-119.22899149999999
tp522
sVO'Fallon, MO
p523
(F38.7796565
F-90.70264399999999
tp524
sVAlhambra, CA
p525
(F34.0855965
F-118.136676
tp526
sVCarlsbad, CA
p527
(F33.121483999999995
F-117.28792349999999
tp528
sVSanta Rosa, CA
p529
(F38.4522175
F-122.6761085
tp530
sVEdmond, OK
p531
(F35.695222
F-97.45574099999999
tp532
sVFarmington Hills, MI
p533
(F42.4842785
F-83.37718100000001
tp534
sVConcord, CA
p535
(F37.973327
F-121.9986445
tp536
sVWarwick, RI
p537
(F41.6989405
F-71.43667
tp538
sVLongview, TX
p539
(F32.503280000000004
F-94.731341
tp540
sVWaterbury, CT
p541
(F41.5665785
F-73.022108
tp542
sVBuena Park, CA
p543
(F33.8527355
F-118.00665699999999
tp544
sVOrem, UT
p545
(F40.2951135
F-111.69646850000001
tp546
sVChula Vista, CA
p547
(F32.633767
F-117.02246299999999
tp548
sVAllentown, PA
p549
(F40.591825
F-75.4839355
tp550
sVProvidence, RI
p551
(F41.817084
F-71.42183250000001
tp552
sVMidland, TX
p553
(F31.9943
F-102.10462700000001
tp554
sVLivonia, MI
p555
(F42.3973155
F-83.37334949999999
tp556
sVVallejo, CA
p557
(F38.114777000000004
F-122.2302225
tp558
sVDetroit, MI
p559
(F42.3527865
F-83.099288
tp560
sVColorado Springs, CO
p561
(F38.8885185
F-104.789327
tp562
sVGilbert, AZ
p563
(F33.295215
F-111.73856649999999
tp564
sVBaldwin Park, CA
p565
(F34.094001
F-117.97515399999999
tp566
sVHonolulu, HI
p567
(F21.319943499999997
F-157.799589
tp568
sVSanta Ana, CA
p569
(F33.739992
F-117.8874385
tp570
sVOceanside, CA
p571
(F33.226316
F-117.32087899999999
tp572
sVOdessa, TX
p573
(F31.873838499999998
F-102.344087
tp574
sVBloomington, MN
p575
(F44.82446949999999
F-93.301344
tp576
sVPlano, TX
p577
(F33.061242500000006
F-96.7349005
tp578
sVSioux City, IA
p579
(F42.473947499999994
F-96.39715
tp580
sVBrockton, MA
p581
(F42.0845665
F-71.02677449999999
tp582
sVColumbia, SC
p583
(F34.0189335
F-80.9954175
tp584
sVNew Bedford, MA
p585
(F41.668285999999995
F-70.938921
tp586
sVDurham, NC
p587
(F35.9909825
F-78.8954405
tp588
sVSan Diego, CA
p589
(F32.810012
F-117.104989
tp590
sVToledo, OH
p591
(F41.65659049999999
F-83.574671
tp592
sVDallas, TX
p593
(F32.819858499999995
F-96.7617535
tp594
sVBurbank, CA
p595
(F34.182159999999996
F-118.325145
tp596
sVPittsburgh, PA
p597
(F40.431388999999996
F-79.9806895
tp598
sVAugusta, GA
p599
(F33.4407175
F-82.063185
tp600
sVSan Marcos, CA
p601
(F33.1387415
F-117.1668165
tp602
sVSunnyvale, CA
p603
(F37.378397
F-122.0238405
tp604
sVLong Beach, CA
p605
(F33.809171500000005
F-118.1567105
tp606
sVProvo, UT
p607
(F40.2486455
F-111.67178899999999
tp608
sVWichita, KS
p609
(F37.6838965
F-97.343915
tp610
sVCompton, CA
p611
(F33.8849685
F-118.222017
tp612
sVDavenport, IA
p613
(F41.537943
F-90.597442
tp614
sVWest Palm Beach, FL
p615
(F26.721896
F-80.1226195
tp616
sVSuffolk, VA
p617
(F36.8100165
F-76.535528
tp618
sVAlbuquerque, NM
p619
(F35.1170025
F-106.632718
tp620
sVBaton Rouge, LA
p621
(F30.4591
F-91.09079949999999
tp622
sVElizabeth, NJ
p623
(F40.662479
F-74.19652450000001
tp624
sVWestminster, CO
p625
(F39.8992865
F-105.068348
tp626
sVPearland, TX
p627
(F29.547884500000002
F-95.3268995
tp628
sVRiverside, CA
p629
(F33.935822
F-117.397616
tp630
sVWestminster, CA
p631
(F33.747313500000004
F-117.99372799999999
tp632
sVKent, WA
p633
(F47.3923115
F-122.2180755
tp634
sVClovis, CA
p635
(F36.830799
F-119.636189
tp636
sVPhoenix, AZ
p637
(F33.5528625
F-112.12467649999999
tp638
sVTracy, CA
p639
(F37.723349999999996
F-121.436217
tp640
sVOgden, UT
p641
(F41.2177985
F-111.9650695
tp642
sVDenton, TX
p643
(F33.2024955
F-97.11477050000002
tp644
sVLas Cruces, NM
p645
(F32.342299499999996
F-106.7374385
tp646
sVBuffalo, NY
p647
(F42.896229500000004
F-78.85356300000001
tp648
sVSandy Springs, GA
p649
(F33.943456999999995
F-84.35244449999999
tp650
sVAnn Arbor, MI
p651
(F42.270839499999994
F-83.7299715
tp652
sVArlington, TX
p653
(F32.70185
F-97.1356375
tp654
sVCleveland, OH
p655
(F41.495939500000006
F-81.705467
tp656
sVSugar Land, TX
p657
(F29.603464000000002
F-95.6316895
tp658
sVTucson, AZ
p659
(F32.1893905
F-110.9155735
tp660
sVOrange, CA
p661
(F33.810159
F-117.824049
tp662
sVEverett, WA
p663
(F47.9599495
F-122.23178850000001
tp664
sVMadison, WI
p665
(F43.0841505
F-89.4064205
tp666
sVTemecula, CA
p667
(F33.501021
F-117.1195165
tp668
sVThornton, CO
p669
(F39.9054745
F-104.949845
tp670
sVBoulder, CO
p671
(F40.023981500000005
F-105.2426865
tp672
sVIndio, CA
p673
(F33.7446325
F-116.237907
tp674
sVVictorville, CA
p675
(F34.531222
F-117.3630675
tp676
sS'New York, NY'
p677
(F40.780709
F-73.9685415
tp678
sVLubbock, TX
p679
(F33.5705265
F-101.89717300000001
tp680
sVSanta Maria, CA
p681
(F34.932367
F-120.419584
tp682
sVRichmond, VA
p683
(F37.529883
F-77.49317049999999
tp684
sVSpringfield, MA
p685
(F42.1130625
F-72.54558449999999
tp686
sVPueblo, CO
p687
(F38.269549999999995
F-104.622776
tp688
sVCambridge, MA
p689
(F42.3781975
F-71.112377
tp690
sVMinneapolis, MN
p691
(F44.9706105
F-93.2620465
tp692
sVLewisville, TX
p693
(F33.042437
F-96.991828
tp694
sVFederal Way, WA
p695
(F47.307568
F-122.334461
tp696
sVSalem, OR
p697
(F44.935084
F-123.029015
tp698
sVCorona, CA
p699
(F33.859093
F-117.58565800000001
tp700
sVRoanoke, VA
p701
(F37.274488500000004
F-79.95791
tp702
sVWest Valley City, UT
p703
(F40.6787035
F-111.997441
tp704
sVYuma, AZ
p705
(F32.668218
F-114.58475250000001
tp706
sVSalt Lake City, UT
p707
(F40.765805
F-111.917026
tp708
sVRockford, IL
p709
(F42.2571455
F-89.01756650000002
tp710
sVWichita Falls, TX
p711
(F33.92642
F-98.52005650000001
tp712
sVRio Rancho, NM
p713
(F35.296183
F-106.66202399999999
tp714
sVManchester, NH
p715
(F42.971199
F-71.4440805
tp716
sVNewton, MA
p717
(F42.3253925
F-71.2136825
tp718
sVFullerton, CA
p719
(F33.8893475
F-117.9248925
tp720
sVNashville, TN
p721
(F36.200008
F-86.79154899999999
tp722
sVGreensboro, NC
p723
(F36.090396999999996
F-79.85736349999999
tp724
sVSan Mateo, CA
p725
(F37.552481
F-122.3154215
tp726
sVNew Orleans, LA
p727
(F29.982601
F-90.011008
tp728
sVGreeley, CO
p729
(F40.4144955
F-104.735476
tp730
sVTopeka, KS
p731
(F39.037579
F-95.69073250000001
tp732
sVCosta Mesa, CA
p733
(F33.6636085
F-117.90564549999999
tp734
sVPaterson, NJ
p735
(F40.915047
F-74.16780750000001
tp736
sVDenver, CO
p737
(F39.713563
F-104.9220935
tp738
sVArlington, VA
p739
(F38.8808445
F-77.101999
tp740
sVLittle Rock, AR
p741
(F34.721886
F-92.342322
tp742
sVClearwater, FL
p743
(F27.9927105
F-82.7553405
tp744
sVCharleston, SC
p745
(F32.7700735
F-80.007367
tp746
sVEl Monte, CA
p747
(F34.070871
F-118.035289
tp748
sVSanta Monica, CA
p749
(F34.022688
F-118.48042000000001
tp750
sVCollege Station, TX
p751
(F30.585471499999997
F-96.29164850000001
tp752
sVFargo, ND
p753
(F46.8648825
F-96.83009249999999
tp754
sVCedar Rapids, IA
p755
(F41.976528
F-91.6828545
tp756
sVOrlando, FL
p757
(F28.501678499999997
F-81.3677725
tp758
s.