(dp0
VMesquite, TX
p1
(F32.7749375
F-96.60214250000001
tp2
sVArvada, CO
p3
(F39.8202065
F-105.12818850000001
tp4
sVSouth Bend, IN
p5
(F41.679655499999996
F-86.290863
tp6
sVBend, OR
p7
(F44.059938
F-121.311582
tp8
sVCicero, IL
p9
(F41.843776
F-87.75880049999999
tp10
sVFremont, CA
p11
(F37.5236445
F-121.979527
tp12
sVNorwalk, CA
p13
(F33.9072505
F-118.0767455
tp14
sVNorwalk, CT
p15
(F41.1562815
F-73.4409395
tp16
sVHayward, CA
p17
(F37.641270500000005
F-122.0857755
tp18
sVMurrieta, CA
p19
(F33.5669805
F-117.1965255
tp20
sVRancho Cucamonga, CA
p21
(F34.12167
F-117.5621525
tp22
sVSandy, UT
p23
(F40.572455500000004
F-111.8609655
tp24
sVOxnard, CA
p25
(F34.181956
F-119.165389
tp26
sVFort Lauderdale, FL
p27
(F26.150368
F-80.1491725
tp28
sVNashua, NH
p29
(F42.752969500000006
F-71.50411700000001
tp30
sVReading, PA
p31
(F40.3341185
F-75.9250215
tp32
sVRacine, WI
p33
(F42.738642999999996
F-87.82412550000001
tp34
sVSpokane, WA
p35
(F47.667438
F-117.43454699999998
tp36
sVBellingham, WA
p37
(F48.753352500000005
F-122.430277
tp38
sVBakersfield, CA
p39
(F35.3469015
F-119.025163
tp40
sVLowell, MA
p41
(F42.636248
F-71.326858
tp42
sVGainesville, FL
p43
(F29.673171500000002
F-82.3302695
tp44
sVAthens, GA
p45
(F33.9563835
F-83.3997795
tp46
sVLawton, OK
p47
(F34.620960499999995
F-98.4225265
tp48
sVSan Antonio, TX
p49
(F29.417501
F-98.54065150000001
tp50
sVSanta Clarita, CA
p51
(F34.415631
F-118.5032585
tp52
sVWorcester, MA
p53
(F42.275760000000005
F-71.812438
tp54
sVSimi Valley, CA
p55
(F34.2673105
F-118.731399
tp56
sVYonkers, NY
p57
(F40.944567500000005
F-73.86085700000001
tp58
sVStockton, CA
p59
(F37.980826
F-121.30042549999999
tp60
sVHuntsville, AL
p61
(F34.7060265
F-86.611411
tp62
sVPalm Bay, FL
p63
(F27.986947
F-80.65181799999999
tp64
sVPlantation, FL
p65
(F26.1245075
F-80.26351700000001
tp66
sVMobile, AL
p67
(F30.683649000000003
F-88.16155549999999
tp68
sVMcKinney, TX
p69
(F33.1946515
F-96.69960400000001
tp70
sVOlathe, KS
p71
(F38.886623
F-94.80808499999999
tp72
sVSouth Gate, CA
p73
(F33.938045
F-118.19402550000001
tp74
sVAnaheim, CA
p75
(F33.842863
F-117.851089
tp76
sVSparks, NV
p77
(F39.574216500000006
F-119.71069449999999
tp78
sVMemphis, TN
p79
(F35.1335205
F-89.92202900000001
tp80
sVPasadena, CA
p81
(F34.17731
F-118.131964
tp82
sVLansing, MI
p83
(F42.71204899999999
F-84.55789899999999
tp84
sVMelbourne, FL
p85
(F28.117874
F-80.649699
tp86
sVJackson, MS
p87
(F32.230987
F-90.1580165
tp88
sVGreeley, CO
p89
(F40.4144955
F-104.735476
tp90
sVChico, CA
p91
(F39.747037
F-121.83373
tp92
sVAmarillo, TX
p93
(F35.2111155
F-101.816092
tp94
sVSan Bernardino, CA
p95
(F34.134924999999996
F-117.294096
tp96
sVVirginia Beach, VA
p97
(F36.8025415
F-76.069946
tp98
sVCarlsbad, CA
p99
(F33.121483999999995
F-117.28792349999999
tp100
sVIndianapolis, IN
p101
(F39.7795625
F-86.1429225
tp102
sVEscondido, CA
p103
(F33.120359
F-117.07231850000001
tp104
sVOverland Park, KS
p105
(F38.931549000000004
F-94.67509349999999
tp106
sVPasadena, TX
p107
(F29.668301
F-95.158936
tp108
sVLincoln, NE
p109
(F40.803235
F-96.6965625
tp110
sVVacaville, CA
p111
(F38.362843999999996
F-121.9719265
tp112
sVTroy, MI
p113
(F42.579003
F-83.1480435
tp114
sVHammond, IN
p115
(F41.6381905
F-87.4788145
tp116
sVSan Francisco, CA
p117
(F37.7706565
F-122.4359785
tp118
sVMontgomery, AL
p119
(F32.364145
F-86.2447285
tp120
sVHampton, VA
p121
(F37.0508965
F-76.36227600000001
tp122
sVPhiladelphia, PA
p123
(F40.0048655
F-75.117998
tp124
sVAvondale, AZ
p125
(F33.4392955
F-112.3152115
tp126
sVLouisville, KY
p127
(F38.195555
F-85.7223455
tp128
sVFarmington Hills, MI
p129
(F42.4842785
F-83.37718100000001
tp130
sVJersey City, NJ
p131
(F40.7180015
F-74.066663
tp132
sVHartford, CT
p133
(F41.765617
F-72.6809665
tp134
sVCincinnati, OH
p135
(F39.137038000000004
F-84.5398125
tp136
sVTyler, TX
p137
(F32.315661500000004
F-95.31704
tp138
sVPortland, OR
p139
(F45.536402
F-122.63090799999999
tp140
sVPembroke Pines, FL
p141
(F26.0278895
F-80.3279985
tp142
sVLongview, TX
p143
(F32.503280000000004
F-94.731341
tp144
sVDavie, FL
p145
(F26.0781705
F-80.285189
tp146
sVGlendale, AZ
p147
(F33.386464
F-111.703345
tp148
sVRaleigh, NC
p149
(F35.845992499999994
F-78.6572445
tp150
sVSan Angelo, TX
p151
(F31.4405225
F-100.453089
tp152
sVKenosha, WI
p153
(F42.589265499999996
F-87.88340500000001
tp154
sVSt. Louis, MO
p155
(F38.653099
F-90.243462
tp156
sVStamford, CT
p157
(F41.0983345
F-73.554097
tp158
sVDeltona, FL
p159
(F28.904590499999998
F-81.2200085
tp160
sVOakland, CA
p161
(F37.791994
F-122.2286855
tp162
sVLos Angeles, CA
p163
(F34.0207895
F-118.4119065
tp164
sVGrand Rapids, MI
p165
(F42.9564115
F-85.6411415
tp166
sVTacoma, WA
p167
(F47.2429605
F-122.455344
tp168
sVChula Vista, CA
p169
(F32.633767
F-117.02246299999999
tp170
sVAkron, OH
p171
(F41.0808775
F-81.5167515
tp172
sVWaukegan, IL
p173
(F42.36878
F-87.88322600000001
tp174
sVTuscaloosa, AL
p175
(F33.1966005
F-87.5334065
tp176
sVBerkeley, CA
p177
(F37.8758455
F-122.27952149999999
tp178
sVChicago, IL
p179
(F41.8335845
F-87.73201300000001
tp180
sVMesa, AZ
p181
(F33.4057545
F-111.7375655
tp182
sVParma, OH
p183
(F41.3849235
F-81.7348115
tp184
sVHialeah, FL
p185
(F25.857732
F-80.3046625
tp186
sVSalinas, CA
p187
(F36.6891495
F-121.6412685
tp188
sVGresham, OR
p189
(F45.510140500000006
F-122.4331955
tp190
sVTorrance, CA
p191
(F33.8337145
F-118.3512175
tp192
sVMurfreesboro, TN
p193
(F35.84742
F-86.40961
tp194
sVTulsa, OK
p195
(F36.1093915
F-95.91364200000001
tp196
sVRichardson, TX
p197
(F32.9644845
F-96.69093699999999
tp198
sVSpokane Valley, WA
p199
(F47.6625765
F-117.234439
tp200
sVBellevue, WA
p201
(F47.5978565
F-122.149768
tp202
sVEvanston, IL
p203
(F42.045437
F-87.6991955
tp204
sVSioux Falls, SD
p205
(F43.5410145
F-96.7311425
tp206
sVModesto, CA
p207
(F37.663817
F-120.987468
tp208
sVAlexandria, VA
p209
(F38.81738
F-77.0908695
tp210
sVGilbert, AZ
p211
(F33.295215
F-111.73856649999999
tp212
sVIrving, TX
p213
(F32.863917
F-96.961483
tp214
sVWaco, TX
p215
(F31.547449
F-97.1691565
tp216
sVRoseville, CA
p217
(F38.7631605
F-121.3007305
tp218
sVKansas City, MO
p219
(F39.1000485
F-94.5592815
tp220
sVBridgeport, CT
p221
(F41.1856745
F-73.1991185
tp222
sVRoswell, GA
p223
(F34.0412115
F-84.340338
tp224
sVMission Viejo, CA
p225
(F33.603508000000005
F-117.656773
tp226
sVHouston, TX
p227
(F29.838495
F-95.44648649999999
tp228
sVSpringfield, IL
p229
(F39.774345999999994
F-89.6596895
tp230
sVChandler, AZ
p231
(F33.282450499999996
F-111.8808735
tp232
sVPompano Beach, FL
p233
(F26.251895
F-80.1386455
tp234
sVNewark, NJ
p235
(F40.734494
F-74.184848
tp236
sVShreveport, LA
p237
(F32.461107
F-93.809434
tp238
sVYakima, WA
p239
(F46.5942225
F-120.5297595
tp240
sVRialto, CA
p241
(F34.0976985
F-117.386642
tp242
sVVisalia, CA
p243
(F36.319486
F-119.3195265
tp244
sVBrockton, MA
p245
(F42.0845665
F-71.02677449999999
tp246
sVOklahoma City, OK
p247
(F35.4828435
F-97.552161
tp248
sVSan Leandro, CA
p249
(F37.7050435
F-122.162294
tp250
sVDecatur, IL
p251
(F39.854585
F-88.93668350000002
tp252
sVFort Collins, CO
p253
(F40.564190499999995
F-105.0639425
tp254
sVCorpus Christi, TX
p255
(F27.737151
F-97.432425
tp256
sVBillings, MT
p257
(F45.7974455
F-108.56292199999999
tp258
sVO'Fallon, MO
p259
(F38.7796565
F-90.70264399999999
tp260
sVRedding, CA
p261
(F40.5539945
F-122.36005300000001
tp262
sVEdmond, OK
p263
(F35.695222
F-97.45574099999999
tp264
sVRound Rock, TX
p265
(F30.5193405
F-97.672732
tp266
sVSan Diego, CA
p267
(F32.810012
F-117.104989
tp268
sVAllentown, PA
p269
(F40.591825
F-75.4839355
tp270
sVToledo, OH
p271
(F41.65659049999999
F-83.574671
tp272
sVDetroit, MI
p273
(F42.3527865
F-83.099288
tp274
sVHonolulu, HI
p275
(F21.319943499999997
F-157.799589
tp276
sVBloomington, MN
p277
(F44.82446949999999
F-93.301344
tp278
sVPlano, TX
p279
(F33.061242500000006
F-96.7349005
tp280
sVWhittier, CA
p281
(F33.9759175
F-118.0188555
tp282
sVColumbia, SC
p283
(F34.0189335
F-80.9954175
tp284
sVMidland, TX
p285
(F31.9943
F-102.10462700000001
tp286
sVDallas, TX
p287
(F32.819858499999995
F-96.7617535
tp288
sVBurbank, CA
p289
(F34.182159999999996
F-118.325145
tp290
sVPittsburgh, PA
p291
(F40.431388999999996
F-79.9806895
tp292
sVWichita, KS
p293
(F37.6838965
F-97.343915
tp294
sVCompton, CA
p295
(F33.8849685
F-118.222017
tp296
sVDavenport, IA
p297
(F41.537943
F-90.597442
tp298
sVWest Palm Beach, FL
p299
(F26.721896
F-80.1226195
tp300
sVSuffolk, VA
p301
(F36.8100165
F-76.535528
tp302
sVHillsboro, OR
p303
(F45.530778999999995
F-122.93553
tp304
sVBaton Rouge, LA
p305
(F30.4591
F-91.09079949999999
tp306
sVWestminster, CO
p307
(F39.8992865
F-105.068348
tp308
sVWestminster, CA
p309
(F33.747313500000004
F-117.99372799999999
tp310
sVKent, WA
p311
(F47.3923115
F-122.2180755
tp312
sVPhoenix, AZ
p313
(F33.5528625
F-112.12467649999999
tp314
sVTracy, CA
p315
(F37.723349999999996
F-121.436217
tp316
sVDenton, TX
p317
(F33.2024955
F-97.11477050000002
tp318
sVBuffalo, NY
p319
(F42.896229500000004
F-78.85356300000001
tp320
sVSandy Springs, GA
p321
(F33.943456999999995
F-84.35244449999999
tp322
sVArlington, TX
p323
(F32.70185
F-97.1356375
tp324
sVSugar Land, TX
p325
(F29.603464000000002
F-95.6316895
tp326
sVTucson, AZ
p327
(F32.1893905
F-110.9155735
tp328
sVThornton, CO
p329
(F39.9054745
F-104.949845
tp330
sVBoulder, CO
p331
(F40.023981500000005
F-105.2426865
tp332
sVIndio, CA
p333
(F33.7446325
F-116.237907
tp334
sVVictorville, CA
p335
(F34.531222
F-117.3630675
tp336
sVSpringfield, MA
p337
(F42.1130625
F-72.54558449999999
tp338
sVMinneapolis, MN
p339
(F44.9706105
F-93.2620465
tp340
sVLewisville, TX
p341
(F33.042437
F-96.991828
tp342
sVSalem, OR
p343
(F44.935084
F-123.029015
tp344
sVCorona, CA
p345
(F33.859093
F-117.58565800000001
tp346
sVRoanoke, VA
p347
(F37.274488500000004
F-79.95791
tp348
sVWest Valley City, UT
p349
(F40.6787035
F-111.997441
tp350
sVYuma, AZ
p351
(F32.668218
F-114.58475250000001
tp352
sVSalt Lake City, UT
p353
(F40.765805
F-111.917026
tp354
sVWichita Falls, TX
p355
(F33.92642
F-98.52005650000001
tp356
sVManchester, NH
p357
(F42.971199
F-71.4440805
tp358
sVNewton, MA
p359
(F42.3253925
F-71.2136825
tp360
sVNashville, TN
p361
(F36.200008
F-86.79154899999999
tp362
sVSan Mateo, CA
p363
(F37.552481
F-122.3154215
tp364
sVNew Orleans, LA
p365
(F29.982601
F-90.011008
tp366
sVPortsmouth, VA
p367
(F36.841764
F-76.35591799999999
tp368
sVDenver, CO
p369
(F39.713563
F-104.9220935
tp370
sVClearwater, FL
p371
(F27.9927105
F-82.7553405
tp372
sVCharleston, SC
p373
(F32.7700735
F-80.007367
tp374
sVEl Monte, CA
p375
(F34.070871
F-118.035289
tp376
sVFargo, ND
p377
(F46.8648825
F-96.83009249999999
tp378
sVOrlando, FL
p379
(F28.501678499999997
F-81.3677725
tp380
sVDes Moines, IA
p381
(F41.5764375
F-93.6063695
tp382
sVFort Wayne, IN
p383
(F41.086917
F-85.1700515
tp384
sVLynn, MA
p385
(F42.478737
F-70.966855
tp386
sVEl Paso, TX
p387
(F31.793368
F-106.4174305
tp388
sVLakeland, FL
p389
(F28.049601000000003
F-81.97270499999999
tp390
sVElgin, IL
p391
(F42.0399395
F-88.3104475
tp392
sVFairfield, CA
p393
(F38.233362
F-122.0429745
tp394
sVWashington, DC
p395
(F38.898602999999994
F-77.0143985
tp396
sVWestland, MI
p397
(F42.3113055
F-83.369718
tp398
sVTempe, AZ
p399
(F33.392883999999995
F-111.928142
tp400
sVBroken Arrow, OK
p401
(F36.0393055
F-95.770195
tp402
sVCitrus Heights, CA
p403
(F38.693226
F-121.2870795
tp404
sVNewport News, VA
p405
(F37.090301
F-76.50780850000001
tp406
sVVancouver, WA
p407
(F45.630589
F-122.5889745
tp408
sVHollywood, FL
p409
(F26.03968
F-80.1783915
tp410
sVSanta Clara, CA
p411
(F37.370990000000006
F-121.967821
tp412
sVPalmdale, CA
p413
(F34.583629
F-118.125196
tp414
sVReno, NV
p415
(F39.512436
F-119.827182
tp416
sVHigh Point, NC
p417
(F35.995054499999995
F-79.99535850000001
tp418
sVHenderson, NV
p419
(F36.006256
F-115.03833700000001
tp420
sVFayetteville, NC
p421
(F35.054626999999996
F-79.0021125
tp422
sVCranston, RI
p423
(F41.768938
F-71.463968
tp424
sVGary, IN
p425
(F41.585848999999996
F-87.32773350000001
tp426
sVChesapeake, VA
p427
(F36.7632155
F-76.2958955
tp428
sVHawthorne, CA
p429
(F33.914068
F-118.34613800000001
tp430
sVSyracuse, NY
p431
(F43.052606999999995
F-76.1288105
tp432
sVSurprise, AZ
p433
(F33.6466545
F-112.379447
tp434
sVWarren, MI
p435
(F42.492846
F-83.0269885
tp436
sVNaperville, IL
p437
(F41.748496
F-88.1613215
tp438
sVDearborn, MI
p439
(F42.314732
F-83.213557
tp440
sVFlint, MI
p441
(F42.9944585
F-83.72561
tp442
sVAllen, TX
p443
(F33.112316500000006
F-96.672767
tp444
sVLancaster, CA
p445
(F34.685827
F-118.1632765
tp446
sVOmaha, NE
p447
(F41.275721000000004
F-96.053431
tp448
sVSavannah, GA
p449
(F32.0172845
F-81.1096165
tp450
sVInglewood, CA
p451
(F33.953633499999995
F-118.3461525
tp452
sVFontana, CA
p453
(F34.1081605
F-117.462698
tp454
sVAbilene, TX
p455
(F32.415051000000005
F-99.750556
tp456
sVSterling Heights, MI
p457
(F42.581306
F-83.03057299999999
tp458
sVNorman, OK
p459
(F35.222301
F-97.4451735
tp460
sVWilmington, NC
p461
(F34.2075545
F-77.86670649999999
tp462
sVLivermore, CA
p463
(F37.683592000000004
F-121.760079
tp464
sVBoca Raton, FL
p465
(F26.3739755
F-80.134986
tp466
sVDowney, CA
p467
(F33.9376735
F-118.130426
tp468
sVNew Haven, CT
p469
(F41.298394
F-72.9291585
tp470
sVTrenton, NJ
p471
(F40.2161325
F-74.7733365
tp472
sVAlhambra, CA
p473
(F34.0855965
F-118.136676
tp474
sVSacramento, CA
p475
(F38.561722
F-121.469664
tp476
sVCamden, NJ
p477
(F39.9374855
F-75.09971250000001
tp478
sVAntioch, CA
p479
(F37.9856605
F-121.79644400000001
tp480
sVErie, PA
p481
(F42.110703
F-80.08703200000001
tp482
sVLee's Summit, MO
p483
(F38.916093000000004
F-94.3782315
tp484
sVEvansville, IN
p485
(F38.0034665
F-87.57469049999999
tp486
sVKilleen, TX
p487
(F31.0793065
F-97.75384
tp488
sVNewport Beach, CA
p489
(F33.617638
F-117.874032
tp490
sVColumbus, GA
p491
(F32.4823035
F-84.917307
tp492
sVFall River, MA
p493
(F41.6861005
F-71.1486405
tp494
sVSan Jose, CA
p495
(F37.331159
F-121.8737305
tp496
sVGreen Bay, WI
p497
(F44.5231735
F-88.0081985
tp498
sVMcAllen, TX
p499
(F26.24069
F-98.2456745
tp500
sVMiami Beach, FL
p501
(F25.816965500000002
F-80.13296249999999
tp502
sVBeaumont, TX
p503
(F30.086918
F-94.12863349999999
tp504
sVQuincy, MA
p505
(F42.256124
F-71.02134
tp506
sVDayton, OH
p507
(F39.78035800000001
F-84.200366
tp508
sVCharlotte, NC
p509
(F35.209058999999996
F-80.8467855
tp510
sVIrvine, CA
p511
(F33.689732
F-117.7823605
tp512
sVLakewood, CA
p513
(F33.8446495
F-118.11307550000001
tp514
sVLakewood, CO
p515
(F39.685852
F-105.1233195
tp516
sVBaltimore, MD
p517
(F39.284712999999996
F-76.62048200000001
tp518
sVEl Cajon, CA
p519
(F32.7992535
F-116.9523525
tp520
sVWest Covina, CA
p521
(F34.0471795
F-117.89666199999999
tp522
sVWinston-Salem, NC
p523
(F36.087168500000004
F-80.244984
tp524
sVFresno, CA
p525
(F36.786041999999995
F-119.7824645
tp526
sVTampa, FL
p527
(F27.9965945
F-82.44269399999999
tp528
sVSanta Barbara, CA
p529
(F34.429885
F-119.701636
tp530
sVVista, CA
p531
(F33.184920500000004
F-117.23977950000001
tp532
sVCentennial, CO
p533
(F39.617782500000004
F-104.8378075
tp534
sVClifton, NJ
p535
(F40.859832
F-74.1581305
tp536
sVDuluth, MN
p537
(F46.758334500000004
F-92.12284000000001
tp538
sVGarden Grove, CA
p539
(F33.769045
F-117.96854
tp540
sVScottsdale, AZ
p541
(F33.639340000000004
F-111.85839849999999
tp542
sVNorfolk, VA
p543
(F36.895082
F-76.255686
tp544
sVPomona, CA
p545
(F34.0654505
F-117.77291699999999
tp546
sVAustin, TX
p547
(F30.323345500000002
F-97.754724
tp548
sVEugene, OR
p549
(F44.065621
F-123.1224015
tp550
sVMiami, FL
p551
(F25.7823535
F-80.2333285
tp552
sVHuntington Beach, CA
p553
(F33.692542
F-117.9987325
tp554
sVFort Smith, AR
p555
(F35.3572525
F-94.370308
tp556
sVAlbuquerque, NM
p557
(F35.1170025
F-106.632718
tp558
sVPearland, TX
p559
(F29.547884500000002
F-95.3268995
tp560
sVNorth Las Vegas, NV
p561
(F36.24912449999999
F-115.133373
tp562
sVFederal Way, WA
p563
(F47.307568
F-122.334461
tp564
sVGreensboro, NC
p565
(F36.090396999999996
F-79.85736349999999
tp566
sVCarson, CA
p567
(F33.839611500000004
F-118.2480625
tp568
sVOntario, CA
p569
(F34.0451585
F-117.60378299999999
tp570
sVMilwaukee, WI
p571
(F43.05672249999999
F-87.9672925
tp572
sVChattanooga, TN
p573
(F35.0919545
F-85.242564
tp574
sVLaredo, TX
p575
(F27.532077
F-99.45467599999999
tp576
sVThousand Oaks, CA
p577
(F34.188478
F-118.91888650000001
tp578
sVNampa, ID
p579
(F43.578912
F-116.5696085
tp580
sVCary, NC
p581
(F35.7561885
F-78.83702100000001
tp582
sVKnoxville, TN
p583
(F35.9824705
F-83.9638415
tp584
sVDaly City, CA
p585
(F37.678779500000005
F-122.4526985
tp586
sVTallahassee, FL
p587
(F30.476215500000002
F-84.266174
tp588
sVBeaverton, OR
p589
(F45.484892
F-122.80557900000001
tp590
sVElk Grove, CA
p591
(F38.4215345
F-121.3820915
tp592
sVAtlanta, GA
p593
(F33.7671945
F-84.433106
tp594
sVIndependence, MO
p595
(F39.0880045
F-94.3783325
tp596
sVBrownsville, TX
p597
(F25.9721055
F-97.47742600000001
tp598
sVChampaign, IL
p599
(F40.1074845
F-88.27921900000001
tp600
sVMiramar, FL
p601
(F25.976124000000002
F-80.307064
tp602
sVChino, CA
p603
(F33.9873325
F-117.67325450000001
tp604
sVDanbury, CT
p605
(F41.4081195
F-73.47297850000001
tp606
sVCape Coral, FL
p607
(F26.63648
F-81.986834
tp608
sVNorth Charleston, SC
p609
(F32.914424499999996
F-80.04593899999999
tp610
sVAnchorage, AK
p611
(F61.2350425
F-149.7587945
tp612
sVSunrise, FL
p613
(F26.1566185
F-80.2948925
tp614
sVClarksville, TN
p615
(F36.5509835
F-87.3221685
tp616
sVAugusta, GA
p617
(F33.4407175
F-82.063185
tp618
sVEverett, WA
p619
(F47.9599495
F-122.23178850000001
tp620
sVCollege Station, TX
p621
(F30.585471499999997
F-96.29164850000001
tp622
sVMerced, CA
p623
(F37.316222499999995
F-120.47181
tp624
sVCoral Springs, FL
p625
(F26.270260999999998
F-80.2497725
tp626
sVMacon, GA
p627
(F32.848817499999996
F-83.6540795
tp628
sVRichmond, CA
p629
(F37.948843
F-122.362414
tp630
sVVallejo, CA
p631
(F38.114777000000004
F-122.2302225
tp632
sVHesperia, CA
p633
(F34.418775499999995
F-117.31909399999999
tp634
sVFrisco, TX
p635
(F33.1501395
F-96.83524899999999
tp636
sVLas Cruces, NM
p637
(F32.342299499999996
F-106.7374385
tp638
sVBoston, MA
p639
(F42.3136695
F-71.0887125
tp640
sVGarland, TX
p641
(F32.907642
F-96.621634
tp642
sVMoreno Valley, CA
p643
(F33.921924000000004
F-117.21791999999999
tp644
sVVentura, CA
p645
(F34.289689499999994
F-119.22899149999999
tp646
sVJoliet, IL
p647
(F41.519555999999994
F-88.1425115
tp648
sVSanta Rosa, CA
p649
(F38.4522175
F-122.6761085
tp650
sVConcord, CA
p651
(F37.973327
F-121.9986445
tp652
sVWarwick, RI
p653
(F41.6989405
F-71.43667
tp654
sVFort Worth, TX
p655
(F32.7799665
F-97.2859135
tp656
sVWaterbury, CT
p657
(F41.5665785
F-73.022108
tp658
sVBuena Park, CA
p659
(F33.8527355
F-118.00665699999999
tp660
sVOrem, UT
p661
(F40.2951135
F-111.69646850000001
tp662
sVBirmingham, AL
p663
(F33.5422375
F-86.793917
tp664
sVLittle Rock, AR
p665
(F34.721886
F-92.342322
tp666
sVLivonia, MI
p667
(F42.3973155
F-83.37334949999999
tp668
sVSunnyvale, CA
p669
(F37.378397
F-122.0238405
tp670
sVColorado Springs, CO
p671
(F38.8885185
F-104.789327
tp672
sVSeattle, WA
p673
(F47.6130285
F-122.34206449999999
tp674
sVBaldwin Park, CA
p675
(F34.094001
F-117.97515399999999
tp676
sVSanta Ana, CA
p677
(F33.739992
F-117.8874385
tp678
sVOceanside, CA
p679
(F33.226316
F-117.32087899999999
tp680
sVOdessa, TX
p681
(F31.873838499999998
F-102.344087
tp682
sVLongmont, CO
p683
(F40.1659305
F-105.11221649999999
tp684
sVNew Bedford, MA
p685
(F41.668285999999995
F-70.938921
tp686
sVDurham, NC
p687
(F35.9909825
F-78.8954405
tp688
sVWest Jordan, UT
p689
(F40.6030705
F-111.992317
tp690
sVTemecula, CA
p691
(F33.501021
F-117.1195165
tp692
sVSan Marcos, CA
p693
(F33.1387415
F-117.1668165
tp694
sVLong Beach, CA
p695
(F33.809171500000005
F-118.1567105
tp696
sVProvo, UT
p697
(F40.2486455
F-111.67178899999999
tp698
sVProvidence, RI
p699
(F41.817084
F-71.42183250000001
tp700
sVElizabeth, NJ
p701
(F40.662479
F-74.19652450000001
tp702
sVRiverside, CA
p703
(F33.935822
F-117.397616
tp704
sVClovis, CA
p705
(F36.830799
F-119.636189
tp706
sVColumbus, OH
p707
(F39.9946835
F-82.985772
tp708
sVOgden, UT
p709
(F41.2177985
F-111.9650695
tp710
sVAnn Arbor, MI
p711
(F42.270839499999994
F-83.7299715
tp712
sVCleveland, OH
p713
(F41.495939500000006
F-81.705467
tp714
sVOrange, CA
p715
(F33.810159
F-117.824049
tp716
sVMadison, WI
p717
(F43.0841505
F-89.4064205
tp718
sS'New York, NY'
p719
(F40.780709
F-73.9685415
tp720
sVLubbock, TX
p721
(F33.5705265
F-101.89717300000001
tp722
sVSanta Maria, CA
p723
(F34.932367
F-120.419584
tp724
sVRichmond, VA
p725
(F37.529883
F-77.49317049999999
tp726
sVCambridge, MA
p727
(F42.3781975
F-71.112377
tp728
sVGrand Prairie, TX
p729
(F32.768591
F-96.994833
tp730
sVLas Vegas, NV
p731
(F36.232915
F-115.223125
tp732
sVLafayette, LA
p733
(F30.206079
F-92.0611765
tp734
sVRockford, IL
p735
(F42.2571455
F-89.01756650000002
tp736
sVRio Rancho, NM
p737
(F35.296183
F-106.66202399999999
tp738
sVFullerton, CA
p739
(F33.8893475
F-117.9248925
tp740
sVSioux City, IA
p741
(F42.473947499999994
F-96.39715
tp742
sVTopeka, KS
p743
(F39.037579
F-95.69073250000001
tp744
sVCosta Mesa, CA
p745
(F33.6636085
F-117.90564549999999
tp746
sVPaterson, NJ
p747
(F40.915047
F-74.16780750000001
tp748
sVArlington, VA
p749
(F38.8808445
F-77.101999
tp750
sVPueblo, CO
p751
(F38.269549999999995
F-104.622776
tp752
sVSanta Monica, CA
p753
(F34.022688
F-118.48042000000001
tp754
sVCedar Rapids, IA
p755
(F41.976528
F-91.6828545
tp756
s.